; Function Attrs: null_pointer_is_valid sspstrong uwtable
define internal fastcc void @decode_UCO_Rectangle_st(ptr noundef %0, ptr noundef %1, ptr noundef %2, i1 noundef zeroext %3) unnamed_addr #0 {
  %5 = load i32, ptr %2, align 4
  %6 = load i32, ptr @ett_giop_struct, align 4
  %7 = tail call ptr @proto_tree_add_subtree(ptr noundef %1, ptr noundef %0, i32 noundef %5, i32 noundef -1, i32 noundef %6, ptr noundef null, ptr noundef nonnull @.str.911)
  %8 = load i32, ptr @hf_UCO_Coordinate2d_x, align 4
  %9 = load i32, ptr %2, align 4
  %10 = add i32 %9, -8
  %11 = tail call double @get_CDR_double(ptr noundef %0, ptr noundef %2, i1 noundef zeroext %3, i32 noundef 12)
  %12 = tail call ptr @proto_tree_add_double(ptr noundef %7, i32 noundef %8, ptr noundef %0, i32 noundef %10, i32 noundef 8, double noundef %11)
  %13 = load i32, ptr @hf_UCO_Coordinate2d_y, align 4
  %14 = load i32, ptr %2, align 4
  %15 = add i32 %14, -8
  %16 = tail call double @get_CDR_double(ptr noundef %0, ptr noundef %2, i1 noundef zeroext %3, i32 noundef 12)
  %17 = tail call ptr @proto_tree_add_double(ptr noundef %7, i32 noundef %13, ptr noundef %0, i32 noundef %15, i32 noundef 8, double noundef %16)
  %18 = load i32, ptr %2, align 4
  %19 = load i32, ptr @ett_giop_struct, align 4
  %20 = tail call ptr @proto_tree_add_subtree(ptr noundef %1, ptr noundef %0, i32 noundef %18, i32 noundef -1, i32 noundef %19, ptr noundef null, ptr noundef nonnull @.str.911)
  %21 = load i32, ptr @hf_UCO_Coordinate2d_x, align 4
  %22 = load i32, ptr %2, align 4
  %23 = add i32 %22, -8
  %24 = tail call double @get_CDR_double(ptr noundef %0, ptr noundef %2, i1 noundef zeroext %3, i32 noundef 12)
  %25 = tail call ptr @proto_tree_add_double(ptr noundef %20, i32 noundef %21, ptr noundef %0, i32 noundef %23, i32 noundef 8, double noundef %24)
  %26 = load i32, ptr @hf_UCO_Coordinate2d_y, align 4
  %27 = load i32, ptr %2, align 4
  %28 = add i32 %27, -8
  %29 = tail call double @get_CDR_double(ptr noundef %0, ptr noundef %2, i1 noundef zeroext %3, i32 noundef 12)
  %30 = tail call ptr @proto_tree_add_double(ptr noundef %20, i32 noundef %26, ptr noundef %0, i32 noundef %28, i32 noundef 8, double noundef %29)
  ret void
}